; Function Attrs: nounwind uwtable
define internal fastcc void @Io_MvCollectTokens(ptr noundef captures(none) initializes((4, 8)) %0, ptr noundef %1, ptr noundef readnone %2) unnamed_addr #0 {
  %4 = getelementptr inbounds nuw i8, ptr %0, i64 4
  store i32 0, ptr %4, align 4, !tbaa !3
  %5 = icmp ult ptr %1, %2
  br i1 %5, label %.lr.ph, label %._crit_edge

.lr.ph:                                           ; preds = %3
  %.phi.trans.insert.i = getelementptr inbounds nuw i8, ptr %0, i64 8
  br label %6

6:                                                ; preds = %.lr.ph, %.loopexit
  %7 = phi i32 [ 0, %.lr.ph ], [ %41, %.loopexit ]
  %.09 = phi ptr [ %1, %.lr.ph ], [ %42, %.loopexit ]
  %8 = load i8, ptr %.09, align 1, !tbaa !37
  %9 = icmp eq i8 %8, 0
  br i1 %9, label %.loopexit, label %10

10:                                               ; preds = %6
  %11 = load i32, ptr %0, align 8, !tbaa !9
  %12 = icmp eq i32 %7, %11
  br i1 %12, label %13, label %.Vec_PtrGrow.exit11_crit_edge.i

.Vec_PtrGrow.exit11_crit_edge.i:                  ; preds = %10
  %.pre.i = load ptr, ptr %.phi.trans.insert.i, align 8, !tbaa !10
  br label %Vec_PtrPush.exit

13:                                               ; preds = %10
  %14 = icmp slt i32 %7, 16
  br i1 %14, label %15, label %22

15:                                               ; preds = %13
  %16 = load ptr, ptr %.phi.trans.insert.i, align 8, !tbaa !10
  %.not9.i.i = icmp eq ptr %16, null
  br i1 %.not9.i.i, label %19, label %17

17:                                               ; preds = %15
  %18 = tail call dereferenceable_or_null(128) ptr @realloc(ptr noundef nonnull %16, i64 noundef 128) #23
  br label %Vec_PtrGrow.exit.i

19:                                               ; preds = %15
  %20 = tail call noalias dereferenceable_or_null(128) ptr @malloc(i64 noundef 128) #20
  br label %Vec_PtrGrow.exit.i

Vec_PtrGrow.exit.i:                               ; preds = %19, %17
  %21 = phi ptr [ %18, %17 ], [ %20, %19 ]
  store ptr %21, ptr %.phi.trans.insert.i, align 8, !tbaa !10
  store i32 16, ptr %0, align 8, !tbaa !9
  br label %Vec_PtrPush.exit

22:                                               ; preds = %13
  %23 = shl nuw nsw i32 %7, 1
  %24 = load ptr, ptr %.phi.trans.insert.i, align 8, !tbaa !10
  %.not9.i10.i = icmp eq ptr %24, null
  %25 = zext nneg i32 %23 to i64
  %26 = shl nuw nsw i64 %25, 3
  br i1 %.not9.i10.i, label %29, label %27

27:                                               ; preds = %22
  %28 = tail call ptr @realloc(ptr noundef nonnull %24, i64 noundef %26) #23
  br label %31

29:                                               ; preds = %22
  %30 = tail call noalias ptr @malloc(i64 noundef %26) #20
  br label %31

31:                                               ; preds = %29, %27
  %32 = phi ptr [ %28, %27 ], [ %30, %29 ]
  store ptr %32, ptr %.phi.trans.insert.i, align 8, !tbaa !10
  store i32 %23, ptr %0, align 8, !tbaa !9
  br label %Vec_PtrPush.exit

Vec_PtrPush.exit:                                 ; preds = %.Vec_PtrGrow.exit11_crit_edge.i, %Vec_PtrGrow.exit.i, %31
  %33 = phi ptr [ %.pre.i, %.Vec_PtrGrow.exit11_crit_edge.i ], [ %32, %31 ], [ %21, %Vec_PtrGrow.exit.i ]
  %34 = load i32, ptr %4, align 4, !tbaa !3
  %35 = add nsw i32 %34, 1
  store i32 %35, ptr %4, align 4, !tbaa !3
  %36 = sext i32 %34 to i64
  %37 = getelementptr inbounds ptr, ptr %33, i64 %36
  store ptr %.09, ptr %37, align 8, !tbaa !36
  br label %38

38:                                               ; preds = %38, %Vec_PtrPush.exit
  %.2 = phi ptr [ %.09, %Vec_PtrPush.exit ], [ %39, %38 ]
  %39 = getelementptr inbounds nuw i8, ptr %.2, i64 1
  %40 = load i8, ptr %39, align 1, !tbaa !37
  %.not = icmp eq i8 %40, 0
  br i1 %.not, label %.loopexit, label %38, !llvm.loop !80

.loopexit:                                        ; preds = %38, %6
  %41 = phi i32 [ %7, %6 ], [ %35, %38 ]
  %.1 = phi ptr [ %.09, %6 ], [ %39, %38 ]
  %42 = getelementptr inbounds nuw i8, ptr %.1, i64 1
  %43 = icmp ult ptr %42, %2
  br i1 %43, label %6, label %._crit_edge, !llvm.loop !81

._crit_edge:                                      ; preds = %.loopexit, %3
  ret void
}